; Function Attrs: mustprogress nounwind uwtable
define internal fastcc void @"_ZZNK4llvm17ConstantRangeList5printERNS_11raw_ostreamEENK3$_0clENS_13ConstantRangeE"(ptr %.0.val, ptr noundef %0) unnamed_addr #0 align 2 {
  %2 = getelementptr inbounds nuw i8, ptr %.0.val, i64 24
  %3 = load ptr, ptr %2, align 8
  %4 = getelementptr inbounds nuw i8, ptr %.0.val, i64 32
  %5 = load ptr, ptr %4, align 8
  %6 = icmp eq ptr %3, %5
  br i1 %6, label %7, label %9

7:                                                ; preds = %1
  %8 = tail call noundef nonnull align 8 dereferenceable(48) ptr @_ZN4llvm11raw_ostream5writeEPKcm(ptr noundef nonnull align 8 dereferenceable(48) %.0.val, ptr noundef nonnull @.str.1, i64 noundef 1) #6
  br label %_ZN4llvm11raw_ostreamlsEPKc.exit

9:                                                ; preds = %1
  store i8 40, ptr %5, align 1
  %10 = load ptr, ptr %4, align 8
  %11 = getelementptr inbounds i8, ptr %10, i64 1
  store ptr %11, ptr %4, align 8
  br label %_ZN4llvm11raw_ostreamlsEPKc.exit

_ZN4llvm11raw_ostreamlsEPKc.exit:                 ; preds = %7, %9
  %.0.i.i = phi ptr [ %8, %7 ], [ %.0.val, %9 ]
  tail call void @_ZNK4llvm5APInt5printERNS_11raw_ostreamEb(ptr noundef nonnull align 8 dereferenceable(12) %0, ptr noundef nonnull align 8 dereferenceable(48) %.0.i.i, i1 noundef zeroext true) #6
  %12 = getelementptr inbounds nuw i8, ptr %.0.i.i, i64 24
  %13 = load ptr, ptr %12, align 8
  %14 = getelementptr inbounds nuw i8, ptr %.0.i.i, i64 32
  %15 = load ptr, ptr %14, align 8
  %16 = ptrtoint ptr %13 to i64
  %17 = ptrtoint ptr %15 to i64
  %18 = sub i64 %16, %17
  %19 = icmp ult i64 %18, 2
  br i1 %19, label %20, label %22

20:                                               ; preds = %_ZN4llvm11raw_ostreamlsEPKc.exit
  %21 = tail call noundef nonnull align 8 dereferenceable(48) ptr @_ZN4llvm11raw_ostream5writeEPKcm(ptr noundef nonnull align 8 dereferenceable(48) %.0.i.i, ptr noundef nonnull @.str, i64 noundef 2) #6
  br label %_ZN4llvm11raw_ostreamlsEPKc.exit3

22:                                               ; preds = %_ZN4llvm11raw_ostreamlsEPKc.exit
  store i16 8236, ptr %15, align 1
  %23 = load ptr, ptr %14, align 8
  %24 = getelementptr inbounds i8, ptr %23, i64 2
  store ptr %24, ptr %14, align 8
  br label %_ZN4llvm11raw_ostreamlsEPKc.exit3

_ZN4llvm11raw_ostreamlsEPKc.exit3:                ; preds = %20, %22
  %.0.i.i2 = phi ptr [ %21, %20 ], [ %.0.i.i, %22 ]
  %25 = getelementptr inbounds nuw i8, ptr %0, i64 16
  tail call void @_ZNK4llvm5APInt5printERNS_11raw_ostreamEb(ptr noundef nonnull align 8 dereferenceable(12) %25, ptr noundef nonnull align 8 dereferenceable(48) %.0.i.i2, i1 noundef zeroext true) #6
  %26 = getelementptr inbounds nuw i8, ptr %.0.i.i2, i64 24
  %27 = load ptr, ptr %26, align 8
  %28 = getelementptr inbounds nuw i8, ptr %.0.i.i2, i64 32
  %29 = load ptr, ptr %28, align 8
  %30 = icmp eq ptr %27, %29
  br i1 %30, label %31, label %33

31:                                               ; preds = %_ZN4llvm11raw_ostreamlsEPKc.exit3
  %32 = tail call noundef nonnull align 8 dereferenceable(48) ptr @_ZN4llvm11raw_ostream5writeEPKcm(ptr noundef nonnull align 8 dereferenceable(48) %.0.i.i2, ptr noundef nonnull @.str.2, i64 noundef 1) #6
  br label %_ZN4llvm11raw_ostreamlsEPKc.exit6

33:                                               ; preds = %_ZN4llvm11raw_ostreamlsEPKc.exit3
  store i8 41, ptr %29, align 1
  %34 = load ptr, ptr %28, align 8
  %35 = getelementptr inbounds i8, ptr %34, i64 1
  store ptr %35, ptr %28, align 8
  br label %_ZN4llvm11raw_ostreamlsEPKc.exit6

_ZN4llvm11raw_ostreamlsEPKc.exit6:                ; preds = %31, %33
  ret void
}